Certificate:
    Data:
        Version: 3 (0x2)
        Serial Number: 1 (0x1)
    Signature Algorithm: sha256WithRSAEncryption
        Issuer: C=UK, ST=Yorkshire, L=Sheffiled, O=Orangebus, OU=Awesome, CN=NexusTestCA/name=EasyRSA/emailAddress=me@myhost.mydomain
        Validity
            Not Before: Aug 22 18:51:49 2017 GMT
            Not After : Aug 17 18:51:49 2018 GMT
        Subject: C=UK, ST=Yorkshire, L=Sheffield, O=OrangeBus, CN=repo.test
        Subject Public Key Info:
            Public Key Algorithm: rsaEncryption
                Public-Key: (4096 bit)
                Modulus:
                    00:e1:03:9a:e5:af:5d:8f:74:a2:23:9f:e6:55:91:
                    2e:b0:5e:c0:c7:79:98:8c:55:40:ea:a5:6b:50:0c:
                    b9:77:0c:67:b7:e2:1c:bb:6d:67:d4:1a:d2:de:2e:
                    2e:73:f9:5f:f9:7e:7e:c6:ff:af:60:75:0e:84:77:
                    85:38:f2:2f:df:2b:30:b7:78:86:7b:9f:43:97:f5:
                    6c:b4:a3:cd:dd:3c:5f:7e:02:4d:2f:67:ee:87:10:
                    38:9b:02:b2:f1:3f:17:26:36:c3:a0:25:7d:fc:c3:
                    05:59:03:21:32:17:01:c1:fc:99:19:33:79:03:57:
                    99:1b:8a:28:86:ee:01:c0:8c:7d:ab:fa:c1:2d:fb:
                    a3:40:9b:b2:cd:bc:98:cd:d7:69:7f:6f:d8:d8:90:
                    13:19:9a:4a:4a:24:29:84:45:f9:49:8f:83:a4:38:
                    29:f0:ee:3d:36:d0:e1:f4:44:29:40:59:e5:97:f3:
                    f1:8d:8f:88:63:8c:fa:67:fa:16:d7:29:37:46:82:
                    f0:45:dd:68:40:61:0f:df:b7:b8:82:65:a6:17:c0:
                    81:17:d2:e6:4b:6f:8a:b1:c2:57:8b:ec:57:6f:e0:
                    ee:44:be:b5:4d:e1:fe:f9:82:50:43:26:d4:9f:08:
                    ed:b1:dc:56:5b:a0:8e:a9:c5:28:5c:da:b6:17:39:
                    04:97:38:47:71:10:99:da:98:e3:23:5b:2a:85:73:
                    86:0f:8a:89:3a:a0:60:77:d6:6b:8a:a5:38:17:2b:
                    64:b7:d5:0f:1b:7b:ed:22:fa:a8:23:92:f1:1b:d6:
                    2e:3f:21:f3:09:3d:0a:9d:56:3c:f8:58:2c:6d:f0:
                    90:9f:f0:28:9d:9d:39:d8:09:5a:ae:c2:9e:7e:b8:
                    1c:ef:46:d1:29:7d:49:92:06:c3:93:0d:b7:08:1e:
                    20:c4:3a:46:b6:01:c7:f3:f2:4d:98:81:1f:cd:51:
                    ba:94:fc:f1:48:4c:9f:da:31:f6:d8:a7:c5:2a:14:
                    54:ff:29:fe:24:8c:8d:1c:f4:9d:26:6b:3e:d8:b5:
                    70:0b:7d:74:ed:5c:04:62:b1:3e:f2:a3:5f:15:29:
                    39:89:f1:a0:9c:45:7a:0c:24:0e:64:8a:1f:70:6c:
                    15:30:a9:50:7f:4e:72:95:8e:36:77:67:7b:75:e9:
                    30:ac:e8:d3:21:78:34:04:6f:64:eb:d4:ba:b3:25:
                    0b:96:4f:11:c7:25:8f:e4:b6:af:6a:4b:b9:ea:07:
                    ce:a4:4e:33:9f:d6:d6:b9:29:c5:ab:60:84:13:3f:
                    1e:57:28:a9:29:a4:ac:35:b6:0e:b4:f2:5d:b8:11:
                    a0:4c:d2:62:51:f8:4d:a3:fa:8a:99:90:ae:0e:a7:
                    97:08:21
                Exponent: 65537 (0x10001)
        X509v3 extensions:
            X509v3 Basic Constraints: 
                CA:FALSE
            X509v3 Key Usage: 
                Digital Signature, Non Repudiation, Key Encipherment
            X509v3 Subject Alternative Name: 
                DNS:nexus.test, DNS:artifactory.test, DNS:repo.test, IP Address:192.168.33.10, IP Address:192.168.33.11, IP Address:192.168.33.12
    Signature Algorithm: sha256WithRSAEncryption
         0d:1d:c1:59:48:d1:80:e2:fe:38:8a:8f:f3:4d:a0:bd:4d:4e:
         a6:15:cb:09:65:31:f1:28:39:21:5f:8e:9a:81:f1:e2:0e:3b:
         9e:66:2b:f7:9f:db:b1:4c:a9:38:d7:b1:2f:1f:c8:f3:e2:af:
         69:7e:a8:0a:c6:e3:db:53:97:6d:22:2c:3e:44:cd:19:a5:fd:
         31:f2:39:e9:96:80:2d:38:64:19:59:8a:ef:d5:06:c8:e6:be:
         69:48:e9:d9:db:b1:dd:50:02:4b:a1:17:89:ee:62:7e:91:cb:
         b8:46:34:d0:5b:54:32:d5:2a:13:a6:51:f0:cc:41:3e:34:a3:
         24:d3:85:14:35:16:fe:56:7e:b2:b8:8e:5b:85:56:d6:cf:6c:
         83:05:bb:13:c0:fa:90:ab:e2:02:13:18:6e:ba:3c:7f:59:cc:
         06:94:3f:6e:3f:a2:ab:85:72:d3:01:25:0e:17:ac:b5:a5:1c:
         ec:cd:89:ca:95:c1:0b:5a:f6:7b:80:fe:1d:cb:7c:3f:64:82:
         19:15:9a:12:db:a5:92:bf:57:ba:c4:f2:4b:57:ab:04:45:49:
         ee:f0:dc:20:b3:00:fa:fb:d2:2a:9d:b8:22:50:a8:8e:10:2b:
         bc:d4:ad:31:82:b3:17:b1:6c:8a:47:2a:6d:80:a2:2a:ee:a5:
         9d:db:83:f9
-----BEGIN CERTIFICATE-----
MIIE3zCCA8egAwIBAgIBATANBgkqhkiG9w0BAQsFADCBpjELMAkGA1UEBhMCVUsx
EjAQBgNVBAgTCVlvcmtzaGlyZTESMBAGA1UEBxMJU2hlZmZpbGVkMRIwEAYDVQQK
EwlPcmFuZ2VidXMxEDAOBgNVBAsTB0F3ZXNvbWUxFDASBgNVBAMTC05leHVzVGVz
dENBMRAwDgYDVQQpEwdFYXN5UlNBMSEwHwYJKoZIhvcNAQkBFhJtZUBteWhvc3Qu
bXlkb21haW4wHhcNMTcwODIyMTg1MTQ5WhcNMTgwODE3MTg1MTQ5WjBdMQswCQYD
VQQGEwJVSzESMBAGA1UECAwJWW9ya3NoaXJlMRIwEAYDVQQHDAlTaGVmZmllbGQx
EjAQBgNVBAoMCU9yYW5nZUJ1czESMBAGA1UEAwwJcmVwby50ZXN0MIICIjANBgkq
hkiG9w0BAQEFAAOCAg8AMIICCgKCAgEA4QOa5a9dj3SiI5/mVZEusF7Ax3mYjFVA
6qVrUAy5dwxnt+Icu21n1BrS3i4uc/lf+X5+xv+vYHUOhHeFOPIv3yswt3iGe59D
l/VstKPN3TxffgJNL2fuhxA4mwKy8T8XJjbDoCV9/MMFWQMhMhcBwfyZGTN5A1eZ
G4oohu4BwIx9q/rBLfujQJuyzbyYzddpf2/Y2JATGZpKSiQphEX5SY+DpDgp8O49
NtDh9EQpQFnll/PxjY+IY4z6Z/oW1yk3RoLwRd1oQGEP37e4gmWmF8CBF9LmS2+K
scJXi+xXb+DuRL61TeH++YJQQybUnwjtsdxWW6COqcUoXNq2FzkElzhHcRCZ2pjj
I1sqhXOGD4qJOqBgd9ZriqU4Fytkt9UPG3vtIvqoI5LxG9YuPyHzCT0KnVY8+Fgs
bfCQn/AonZ052AlarsKefrgc70bRKX1JkgbDkw23CB4gxDpGtgHH8/JNmIEfzVG6
lPzxSEyf2jH22KfFKhRU/yn+JIyNHPSdJms+2LVwC3107VwEYrE+8qNfFSk5ifGg
nEV6DCQOZIofcGwVMKlQf05ylY42d2d7dekwrOjTIXg0BG9k69S6syULlk8RxyWP
5Lavaku56gfOpE4zn9bWuSnFq2CEEz8eVyipKaSsNbYOtPJduBGgTNJiUfhNo/qK
mZCuDqeXCCECAwEAAaNgMF4wCQYDVR0TBAIwADALBgNVHQ8EBAMCBeAwRAYDVR0R
BD0wO4IKbmV4dXMudGVzdIIQYXJ0aWZhY3RvcnkudGVzdIIJcmVwby50ZXN0hwTA
qCEKhwTAqCELhwTAqCEMMA0GCSqGSIb3DQEBCwUAA4IBAQANHcFZSNGA4v44io/z
TaC9TU6mFcsJZTHxKDkhX46agfHiDjueZiv3n9uxTKk417EvH8jz4q9pfqgKxuPb
U5dtIiw+RM0Zpf0x8jnploAtOGQZWYrv1QbI5r5pSOnZ27HdUAJLoReJ7mJ+kcu4
RjTQW1Qy1SoTplHwzEE+NKMk04UUNRb+Vn6yuI5bhVbWz2yDBbsTwPqQq+ICExhu
ujx/WcwGlD9uP6KrhXLTASUOF6y1pRzszYnKlcELWvZ7gP4dy3w/ZIIZFZoS26WS
v1e6xPJLV6sERUnu8NwgswD6+9IqnbgiUKiOECu81K0xgrMXsWyKRyptgKIq7qWd
24P5
-----END CERTIFICATE-----
-----BEGIN PRIVATE KEY-----
MIIJRAIBADANBgkqhkiG9w0BAQEFAASCCS4wggkqAgEAAoICAQDhA5rlr12PdKIj
n+ZVkS6wXsDHeZiMVUDqpWtQDLl3DGe34hy7bWfUGtLeLi5z+V/5fn7G/69gdQ6E
d4U48i/fKzC3eIZ7n0OX9Wy0o83dPF9+Ak0vZ+6HEDibArLxPxcmNsOgJX38wwVZ
AyEyFwHB/JkZM3kDV5kbiiiG7gHAjH2r+sEt+6NAm7LNvJjN12l/b9jYkBMZmkpK
JCmERflJj4OkOCnw7j020OH0RClAWeWX8/GNj4hjjPpn+hbXKTdGgvBF3WhAYQ/f
t7iCZaYXwIEX0uZLb4qxwleL7Fdv4O5EvrVN4f75glBDJtSfCO2x3FZboI6pxShc
2rYXOQSXOEdxEJnamOMjWyqFc4YPiok6oGB31muKpTgXK2S31Q8be+0i+qgjkvEb
1i4/IfMJPQqdVjz4WCxt8JCf8CidnTnYCVquwp5+uBzvRtEpfUmSBsOTDbcIHiDE
Oka2Acfz8k2YgR/NUbqU/PFITJ/aMfbYp8UqFFT/Kf4kjI0c9J0maz7YtXALfXTt
XARisT7yo18VKTmJ8aCcRXoMJA5kih9wbBUwqVB/TnKVjjZ3Z3t16TCs6NMheDQE
b2Tr1LqzJQuWTxHHJY/ktq9qS7nqB86kTjOf1ta5KcWrYIQTPx5XKKkppKw1tg60
8l24EaBM0mJR+E2j+oqZkK4Op5cIIQIDAQABAoICAAvDRnuvWTLApCE8oKvkdQ5f
RbCn2KOtaUFa+Gss3x0sFtf0CBB8PatG47Mdsuv5I11FkZcRkrd2JxYhsWMytfHy
rg9JS652uu/cspwW3BIur8dEk4hg5IVHAc6Iq5YU+D7VKhDbJOTrxQHMOhYGQd9E
NzSsDi1wjN51sHytQIYyUfeFmkevGe+stAIxU8Oe+TLiQ/G+RmFWQX/yuADkL436
5KTXEso3ihetf8JnNcjZajkxVXVTBYw+uHBrEHqa+vrCqZDdbC/BYzUMw6Z9bdtc
AuOd8NAMurFkOXNlHYUJuyr41T2HDO86Mrvv8bmGm/ZqUFFl6U9SsTN5c39vSaAM
/5qgnsHXkGKuzYqN6UlSRKCSbCsQ9HOvKIh/Kl7klY5vE7aSGpI6e3bBU8UtZrp3
xVRef6DQ/QdGVvk7eLpp6ulGS7LM4KcZhekTjzJ9mkhcRkXynkyblMiahu058Yu3
u9yVeUOSembkcOeccbt2vmAwCnXteJWrLvqBcUAvuuIrBqd7dwXXUXqyCB2mnohB
OTY02yO21DdzbAfb2vi+H/0B91luaBdZ6Tncw1HJn1cUQTAfwABGHj44adA2G5QS
WfUkBsq//uLh1f+MuAy4/r7JmKU2OaaunJY8yGllIdS3vYSLTRVr7mnTzC+ZqLpU
Hdr3Rze02jJCFVFkjWypAoIBAQD78UftAa9Q0x+QX5ZP1gBstlj6G0kHu07KusOl
43/WuKY9rf1M20EQKImr5yCW86wFa6IIS3PywiB8aY7nQ7ldXebhwNFD2x67J/OO
bpQP67jfugPkaeLWFSN67GO6T5h23K9QR6mBNt2/7k6sC8l/aZNX556SuzGPhCt0
Q+HZQzwu76+MFl7FRrTHWFZcXJ258pu2DD7O487h1fn92zF/CYf4V03uWpZswE6j
gUVB2bkhNTBiSp81XiTIs6ur+20dCRc4PtYMuyGlu/Dg1m++rDMml1V4fYWNkpqb
lCEDWt/C6SY+7doSVv+xC8euPv3MxILx4SGF4Zx6DP0eAwNTAoIBAQDko01wAcrd
fbB2Vtzyrnj1B2xn5W0xDzu7sAOXOVTD3vmavg17gFgLss8Ua2WXaJVfFvnSprI6
1bvw68TIyPQxHU9dVCRKDMEdT6bf97n7SC5xtnNygtq3k8JGVk4HmWj8caJnQPjx
ZPoge5LbgknAA4/aptmr2waPOD2CaRcqqgZ8zuYNN4DoDcpTmkmy3yDGC4blGmu3
lx8Db9GY6Xplcgf9Di7Q9vlSCUVsVo5I0Q8n6Ae9Eku0YBXZzNnxxFdfSJ/RosMo
jNAp17ktWNWEzZLBIiIaSUrnbNZiGvkkW8MyxYWA0i4h3KOa1j5Cxsh1PQlfoQpy
IHZEimRXASw7AoIBAQDeT5C9FMCDHFh8x6vV9KrZQqoOv6bYeLJU9yoOpkk2yiZ+
xJl/iPTHck3Q7xh1urxu6APJN/MvIZcS0P41GTBmr6Y8TC0bqC1czir+4pop1kGC
wRwQIFL1vx9Yp2B0lSmesKrNtv5eM3DGnFy1OY1qrVlDtvDY3u8jiWfipseSM97W
N896WH71qqd4Q32o8FyJKQe3QuTlIGV8J5j5JMJvK5TcUQVGLo8PlT2Oz1GygpD2
OX3hLaGAsPraUphIIIqulUf07JVqFHHjUYyCiRV/dWmJQv47XN9NBjEA2VusHzLV
RW/nFXBYwIXMzu061wCTAE/faV1wSp0NoYp0QgpbAoIBAQDTQdzMcKuMqpVBUxOG
nRWgekJ9YWzaFtQ/oOxAb7XV4hJKG++DPNydupNCr9VH6FeUbDtbm7E1UcX9XywN
xjhzpTxu5M8/KLfLKIzthw1ulIxtf4L+vM/xLfMlYJtqxCJQl4LS2yLqkT3Yg7X3
Y1RXujLSerbH53IRJYsYE5hXUJD8A4Rnk/Bk+lEHnJkaULcMpxv2VspO8bCzUT+e
haUVVR7ygIdbh8hpN63Q481GlPznB6sW1W/j86BdBb4feSauIQGjBzxCHJI/B1fQ
AbQQqI5ALBTMqwot+c/BCGFKagtbv0yS8iG0IhV9fRY8R0ZzpXkixj9LopkEzcbW
6Xt/AoIBAQCHcOn5SmkHSY+lZgLGbj50cMTv/oWsAWM3UF8d1JbkiWiueU3lUBSP
YotcWdB551HL/6BXCbGWAD2lEClf5vl2WD1k8+bBhwDhQKd0mtLnGGSGX9Bzvmwi
yTkaf0GhiQQlY8kdTHL1wqn1mA6j7jcKF5XhG6vKZzCDPV46cmHZmkpZ0HSGc9g1
/c+Eo/t6ddWA89zF3Hj0EdSeQZr4pBjdPydrYRNiDNvTMdyukyqlpJJzkBPD+u7s
5xv3mCgeuxjTTllMmWTYivQ4V2+1Q9pHtqYo9a/PRu32GX327XfXZ2AB86pw6pOt
2LgAhBa+a9QWfadIo0Z2ieyr5CjyETbx
-----END PRIVATE KEY-----
